; ModuleID = '58/14.c'
source_filename = "58/14.c"
target datalayout = "e-m:e-p270:32:32-p271:32:32-p272:64:64-i64:64-f80:128-n8:16:32:64-S128"
target triple = "x86_64-pc-linux-gnu"

@.str = private unnamed_addr constant [4 x i8] c"%d\0A\00", align 1
@.str.1 = private unnamed_addr constant [3 x i8] c"0\0A\00", align 1
@.str.2 = private unnamed_addr constant [3 x i8] c"1\0A\00", align 1

; Function Attrs: noinline nounwind uwtable
define dso_local void @main() #0 {
  %1 = alloca i32, align 4
  %2 = alloca i32, align 4
  %3 = alloca i32, align 4
  %4 = alloca i32, align 4
  %5 = alloca [100 x i8*], align 16
  %6 = alloca i8**, align 8
  %7 = getelementptr inbounds [100 x i8*], [100 x i8*]* %5, i64 0, i64 0
  store i8** %7, i8*** %6, align 8
  %8 = call i32 (i8*, ...) @__isoc99_scanf(i8* getelementptr inbounds ([4 x i8], [4 x i8]* @.str, i64 0, i64 0), i32* %1)
  store i32 0, i32* %2, align 4
  br label %9

9:                                                ; preds = %25, %0
  %10 = load i32, i32* %2, align 4
  %11 = load i32, i32* %1, align 4
  %12 = icmp slt i32 %10, %11
  br i1 %12, label %13, label %28

13:                                               ; preds = %9
  %14 = call noalias i8* @calloc(i64 10000, i64 1) #3
  %15 = load i8**, i8*** %6, align 8
  %16 = load i32, i32* %2, align 4
  %17 = sext i32 %16 to i64
  %18 = getelementptr inbounds i8*, i8** %15, i64 %17
  store i8* %14, i8** %18, align 8
  %19 = load i8**, i8*** %6, align 8
  %20 = load i32, i32* %2, align 4
  %21 = sext i32 %20 to i64
  %22 = getelementptr inbounds i8*, i8** %19, i64 %21
  %23 = load i8*, i8** %22, align 8
  %24 = call i32 (i8*, ...) bitcast (i32 (...)* @gets to i32 (i8*, ...)*)(i8* %23)
  br label %25

25:                                               ; preds = %13
  %26 = load i32, i32* %2, align 4
  %27 = add nsw i32 %26, 1
  store i32 %27, i32* %2, align 4
  br label %9

28:                                               ; preds = %9
  store i32 0, i32* %4, align 4
  br label %29

29:                                               ; preds = %201, %28
  %30 = load i32, i32* %4, align 4
  %31 = load i32, i32* %1, align 4
  %32 = icmp slt i32 %30, %31
  br i1 %32, label %33, label %204

33:                                               ; preds = %29
  %34 = load i8**, i8*** %6, align 8
  %35 = load i32, i32* %4, align 4
  %36 = sext i32 %35 to i64
  %37 = getelementptr inbounds i8*, i8** %34, i64 %36
  %38 = load i8*, i8** %37, align 8
  %39 = load i8, i8* %38, align 1
  %40 = sext i8 %39 to i32
  %41 = icmp sle i32 %40, 90
  br i1 %41, label %42, label %51

42:                                               ; preds = %33
  %43 = load i8**, i8*** %6, align 8
  %44 = load i32, i32* %4, align 4
  %45 = sext i32 %44 to i64
  %46 = getelementptr inbounds i8*, i8** %43, i64 %45
  %47 = load i8*, i8** %46, align 8
  %48 = load i8, i8* %47, align 1
  %49 = sext i8 %48 to i32
  %50 = icmp sge i32 %49, 65
  br i1 %50, label %78, label %51

51:                                               ; preds = %42, %33
  %52 = load i8**, i8*** %6, align 8
  %53 = load i32, i32* %4, align 4
  %54 = sext i32 %53 to i64
  %55 = getelementptr inbounds i8*, i8** %52, i64 %54
  %56 = load i8*, i8** %55, align 8
  %57 = load i8, i8* %56, align 1
  %58 = sext i8 %57 to i32
  %59 = icmp sle i32 %58, 122
  br i1 %59, label %60, label %69

60:                                               ; preds = %51
  %61 = load i8**, i8*** %6, align 8
  %62 = load i32, i32* %4, align 4
  %63 = sext i32 %62 to i64
  %64 = getelementptr inbounds i8*, i8** %61, i64 %63
  %65 = load i8*, i8** %64, align 8
  %66 = load i8, i8* %65, align 1
  %67 = sext i8 %66 to i32
  %68 = icmp sge i32 %67, 97
  br i1 %68, label %78, label %69

69:                                               ; preds = %60, %51
  %70 = load i8**, i8*** %6, align 8
  %71 = load i32, i32* %4, align 4
  %72 = sext i32 %71 to i64
  %73 = getelementptr inbounds i8*, i8** %70, i64 %72
  %74 = load i8*, i8** %73, align 8
  %75 = load i8, i8* %74, align 1
  %76 = sext i8 %75 to i32
  %77 = icmp eq i32 %76, 95
  br i1 %77, label %78, label %198

78:                                               ; preds = %69, %60, %42
  store i32 0, i32* %2, align 4
  br label %79

79:                                               ; preds = %194, %78
  %80 = load i8**, i8*** %6, align 8
  %81 = load i32, i32* %4, align 4
  %82 = sext i32 %81 to i64
  %83 = getelementptr inbounds i8*, i8** %80, i64 %82
  %84 = load i8*, i8** %83, align 8
  %85 = load i32, i32* %2, align 4
  %86 = sext i32 %85 to i64
  %87 = getelementptr inbounds i8, i8* %84, i64 %86
  %88 = load i8, i8* %87, align 1
  %89 = sext i8 %88 to i32
  %90 = icmp ne i32 %89, 0
  br i1 %90, label %91, label %197

91:                                               ; preds = %79
  %92 = load i8**, i8*** %6, align 8
  %93 = load i32, i32* %4, align 4
  %94 = sext i32 %93 to i64
  %95 = getelementptr inbounds i8*, i8** %92, i64 %94
  %96 = load i8*, i8** %95, align 8
  %97 = load i32, i32* %2, align 4
  %98 = sext i32 %97 to i64
  %99 = getelementptr inbounds i8, i8* %96, i64 %98
  %100 = load i8, i8* %99, align 1
  %101 = sext i8 %100 to i32
  %102 = icmp sle i32 %101, 90
  br i1 %102, label %103, label %115

103:                                              ; preds = %91
  %104 = load i8**, i8*** %6, align 8
  %105 = load i32, i32* %4, align 4
  %106 = sext i32 %105 to i64
  %107 = getelementptr inbounds i8*, i8** %104, i64 %106
  %108 = load i8*, i8** %107, align 8
  %109 = load i32, i32* %2, align 4
  %110 = sext i32 %109 to i64
  %111 = getelementptr inbounds i8, i8* %108, i64 %110
  %112 = load i8, i8* %111, align 1
  %113 = sext i8 %112 to i32
  %114 = icmp sge i32 %113, 65
  br i1 %114, label %175, label %115

115:                                              ; preds = %103, %91
  %116 = load i8**, i8*** %6, align 8
  %117 = load i32, i32* %4, align 4
  %118 = sext i32 %117 to i64
  %119 = getelementptr inbounds i8*, i8** %116, i64 %118
  %120 = load i8*, i8** %119, align 8
  %121 = load i32, i32* %2, align 4
  %122 = sext i32 %121 to i64
  %123 = getelementptr inbounds i8, i8* %120, i64 %122
  %124 = load i8, i8* %123, align 1
  %125 = sext i8 %124 to i32
  %126 = icmp sle i32 %125, 122
  br i1 %126, label %127, label %139

127:                                              ; preds = %115
  %128 = load i8**, i8*** %6, align 8
  %129 = load i32, i32* %4, align 4
  %130 = sext i32 %129 to i64
  %131 = getelementptr inbounds i8*, i8** %128, i64 %130
  %132 = load i8*, i8** %131, align 8
  %133 = load i32, i32* %2, align 4
  %134 = sext i32 %133 to i64
  %135 = getelementptr inbounds i8, i8* %132, i64 %134
  %136 = load i8, i8* %135, align 1
  %137 = sext i8 %136 to i32
  %138 = icmp sge i32 %137, 97
  br i1 %138, label %175, label %139

139:                                              ; preds = %127, %115
  %140 = load i8**, i8*** %6, align 8
  %141 = load i32, i32* %4, align 4
  %142 = sext i32 %141 to i64
  %143 = getelementptr inbounds i8*, i8** %140, i64 %142
  %144 = load i8*, i8** %143, align 8
  %145 = load i32, i32* %2, align 4
  %146 = sext i32 %145 to i64
  %147 = getelementptr inbounds i8, i8* %144, i64 %146
  %148 = load i8, i8* %147, align 1
  %149 = sext i8 %148 to i32
  %150 = icmp sle i32 %149, 57
  br i1 %150, label %151, label %163

151:                                              ; preds = %139
  %152 = load i8**, i8*** %6, align 8
  %153 = load i32, i32* %4, align 4
  %154 = sext i32 %153 to i64
  %155 = getelementptr inbounds i8*, i8** %152, i64 %154
  %156 = load i8*, i8** %155, align 8
  %157 = load i32, i32* %2, align 4
  %158 = sext i32 %157 to i64
  %159 = getelementptr inbounds i8, i8* %156, i64 %158
  %160 = load i8, i8* %159, align 1
  %161 = sext i8 %160 to i32
  %162 = icmp sge i32 %161, 48
  br i1 %162, label %175, label %163

163:                                              ; preds = %151, %139
  %164 = load i8**, i8*** %6, align 8
  %165 = load i32, i32* %4, align 4
  %166 = sext i32 %165 to i64
  %167 = getelementptr inbounds i8*, i8** %164, i64 %166
  %168 = load i8*, i8** %167, align 8
  %169 = load i32, i32* %2, align 4
  %170 = sext i32 %169 to i64
  %171 = getelementptr inbounds i8, i8* %168, i64 %170
  %172 = load i8, i8* %171, align 1
  %173 = sext i8 %172 to i32
  %174 = icmp eq i32 %173, 95
  br i1 %174, label %175, label %176

175:                                              ; preds = %163, %151, %127, %103
  br label %178

176:                                              ; preds = %163
  %177 = call i32 (i8*, ...) @printf(i8* getelementptr inbounds ([3 x i8], [3 x i8]* @.str.1, i64 0, i64 0))
  br label %197

178:                                              ; preds = %175
  %179 = load i8**, i8*** %6, align 8
  %180 = load i32, i32* %4, align 4
  %181 = sext i32 %180 to i64
  %182 = getelementptr inbounds i8*, i8** %179, i64 %181
  %183 = load i8*, i8** %182, align 8
  %184 = load i32, i32* %2, align 4
  %185 = sext i32 %184 to i64
  %186 = getelementptr inbounds i8, i8* %183, i64 %185
  %187 = getelementptr inbounds i8, i8* %186, i64 1
  %188 = load i8, i8* %187, align 1
  %189 = sext i8 %188 to i32
  %190 = icmp eq i32 %189, 0
  br i1 %190, label %191, label %193

191:                                              ; preds = %178
  %192 = call i32 (i8*, ...) @printf(i8* getelementptr inbounds ([3 x i8], [3 x i8]* @.str.2, i64 0, i64 0))
  br label %193

193:                                              ; preds = %191, %178
  br label %194

194:                                              ; preds = %193
  %195 = load i32, i32* %2, align 4
  %196 = add nsw i32 %195, 1
  store i32 %196, i32* %2, align 4
  br label %79

197:                                              ; preds = %176, %79
  br label %200

198:                                              ; preds = %69
  %199 = call i32 (i8*, ...) @printf(i8* getelementptr inbounds ([3 x i8], [3 x i8]* @.str.1, i64 0, i64 0))
  br label %200

200:                                              ; preds = %198, %197
  br label %201

201:                                              ; preds = %200
  %202 = load i32, i32* %4, align 4
  %203 = add nsw i32 %202, 1
  store i32 %203, i32* %4, align 4
  br label %29

204:                                              ; preds = %29
  ret void
}

declare dso_local i32 @__isoc99_scanf(i8*, ...) #1

; Function Attrs: nounwind
declare dso_local noalias i8* @calloc(i64, i64) #2

declare dso_local i32 @gets(...) #1

declare dso_local i32 @printf(i8*, ...) #1


!llvm.module.flags = !{!0}
!llvm.ident = !{!1}

!0 = !{i32 1, !"wchar_size", i32 4}
!1 = !{!"clang version 10.0.0-4ubuntu1 "}
